target datalayout = "e-m:e-p270:32:32-p271:32:32-p272:64:64-i64:64-i128:128-f80:128-n8:16:32:64-S128"
target triple = "x86_64-pc-linux-gnu"

; Function Attrs: mustprogress nounwind uwtable
define noundef i32 @_ZN5boost7archive6detail18utf8_codecvt_facet15get_octet_countEh(i8 noundef zeroext %0) #3 align 2 {
  %2 = alloca i32, align 4
  %3 = alloca i8, align 1
  store i8 %0, ptr %3, align 1, !tbaa !11
  %4 = load i8, ptr %3, align 1, !tbaa !11
  %5 = zext i8 %4 to i32
  %6 = icmp sle i32 %5, 127
  br i1 %6, label %7, label %8

7:                                                ; preds = %1
  store i32 1, ptr %2, align 4
  br label %45

8:                                                ; preds = %1
  %9 = load i8, ptr %3, align 1, !tbaa !11
  %10 = zext i8 %9 to i32
  %11 = icmp sle i32 192, %10
  br i1 %11, label %12, label %17

12:                                               ; preds = %8
  %13 = load i8, ptr %3, align 1, !tbaa !11
  %14 = zext i8 %13 to i32
  %15 = icmp sle i32 %14, 223
  br i1 %15, label %16, label %17

16:                                               ; preds = %12
  store i32 2, ptr %2, align 4
  br label %45

17:                                               ; preds = %12, %8
  %18 = load i8, ptr %3, align 1, !tbaa !11
  %19 = zext i8 %18 to i32
  %20 = icmp sle i32 224, %19
  br i1 %20, label %21, label %26

21:                                               ; preds = %17
  %22 = load i8, ptr %3, align 1, !tbaa !11
  %23 = zext i8 %22 to i32
  %24 = icmp sle i32 %23, 239
  br i1 %24, label %25, label %26

25:                                               ; preds = %21
  store i32 3, ptr %2, align 4
  br label %45

26:                                               ; preds = %21, %17
  %27 = load i8, ptr %3, align 1, !tbaa !11
  %28 = zext i8 %27 to i32
  %29 = icmp sle i32 240, %28
  br i1 %29, label %30, label %35

30:                                               ; preds = %26
  %31 = load i8, ptr %3, align 1, !tbaa !11
  %32 = zext i8 %31 to i32
  %33 = icmp sle i32 %32, 247
  br i1 %33, label %34, label %35

34:                                               ; preds = %30
  store i32 4, ptr %2, align 4
  br label %45

35:                                               ; preds = %30, %26
  %36 = load i8, ptr %3, align 1, !tbaa !11
  %37 = zext i8 %36 to i32
  %38 = icmp sle i32 248, %37
  br i1 %38, label %39, label %44

39:                                               ; preds = %35
  %40 = load i8, ptr %3, align 1, !tbaa !11
  %41 = zext i8 %40 to i32
  %42 = icmp sle i32 %41, 251
  br i1 %42, label %43, label %44

43:                                               ; preds = %39
  store i32 5, ptr %2, align 4
  br label %45

44:                                               ; preds = %39, %35
  store i32 6, ptr %2, align 4
  br label %45

45:                                               ; preds = %44, %43, %34, %25, %16, %7
  %46 = load i32, ptr %2, align 4
  ret i32 %46
}

; Function Attrs: mustprogress uwtable
define noundef i32 @_ZNK5boost7archive6detail18utf8_codecvt_facet9do_lengthER11__mbstate_tPKcS6_m(ptr noundef nonnull align 8 dereferenceable(24) %0, ptr noundef nonnull align 4 dereferenceable(8) %1, ptr noundef %2, ptr noundef %3, i64 noundef %4) unnamed_addr #0 align 2 {
  %6 = alloca ptr, align 8
  %7 = alloca ptr, align 8
  %8 = alloca ptr, align 8
  %9 = alloca ptr, align 8
  %10 = alloca i64, align 8
  %11 = alloca ptr, align 8
  %12 = alloca i64, align 8
  %13 = alloca i32, align 4
  %14 = alloca i32, align 4
  store ptr %0, ptr %6, align 8, !tbaa !3
  store ptr %1, ptr %7, align 8, !tbaa !3
  store ptr %2, ptr %8, align 8, !tbaa !3
  store ptr %3, ptr %9, align 8, !tbaa !3
  store i64 %4, ptr %10, align 8, !tbaa !7
  call void @llvm.lifetime.start.p0(i64 8, ptr %11) #7
  %15 = load ptr, ptr %8, align 8, !tbaa !3
  store ptr %15, ptr %11, align 8, !tbaa !3
  call void @llvm.lifetime.start.p0(i64 8, ptr %12) #7
  store i64 0, ptr %12, align 8, !tbaa !7
  br label %16

16:                                               ; preds = %48, %5
  %17 = load i64, ptr %12, align 8, !tbaa !7
  %18 = load i64, ptr %10, align 8, !tbaa !7
  %19 = icmp ult i64 %17, %18
  br i1 %19, label %20, label %24

20:                                               ; preds = %16
  %21 = load ptr, ptr %11, align 8, !tbaa !3
  %22 = load ptr, ptr %9, align 8, !tbaa !3
  %23 = icmp ult ptr %21, %22
  br label %24

24:                                               ; preds = %20, %16
  %25 = phi i1 [ false, %16 ], [ %23, %20 ]
  br i1 %25, label %27, label %26

26:                                               ; preds = %24
  store i32 2, ptr %13, align 4
  br label %51

27:                                               ; preds = %24
  call void @llvm.lifetime.start.p0(i64 4, ptr %14) #7
  %28 = load ptr, ptr %11, align 8, !tbaa !3
  %29 = load i8, ptr %28, align 1, !tbaa !11
  %30 = call noundef i32 @_ZN5boost7archive6detail18utf8_codecvt_facet15get_octet_countEh(i8 noundef zeroext %29)
  store i32 %30, ptr %14, align 4, !tbaa !12
  %31 = load i32, ptr %14, align 4, !tbaa !12
  %32 = zext i32 %31 to i64
  %33 = load ptr, ptr %9, align 8, !tbaa !3
  %34 = load ptr, ptr %11, align 8, !tbaa !3
  %35 = ptrtoint ptr %33 to i64
  %36 = ptrtoint ptr %34 to i64
  %37 = sub i64 %35, %36
  %38 = icmp ugt i64 %32, %37
  br i1 %38, label %39, label %40

39:                                               ; preds = %27
  store i32 2, ptr %13, align 4
  br label %45

40:                                               ; preds = %27
  %41 = load i32, ptr %14, align 4, !tbaa !12
  %42 = load ptr, ptr %11, align 8, !tbaa !3
  %43 = zext i32 %41 to i64
  %44 = getelementptr inbounds nuw i8, ptr %42, i64 %43
  store ptr %44, ptr %11, align 8, !tbaa !3
  store i32 0, ptr %13, align 4
  br label %45

45:                                               ; preds = %40, %39
  call void @llvm.lifetime.end.p0(i64 4, ptr %14) #7
  %46 = load i32, ptr %13, align 4
  switch i32 %46, label %51 [
    i32 0, label %47
  ]

47:                                               ; preds = %45
  br label %48

48:                                               ; preds = %47
  %49 = load i64, ptr %12, align 8, !tbaa !7
  %50 = add i64 %49, 1
  store i64 %50, ptr %12, align 8, !tbaa !7
  br label %16, !llvm.loop !21

51:                                               ; preds = %45, %26
  call void @llvm.lifetime.end.p0(i64 8, ptr %12) #7
  br label %52

52:                                               ; preds = %51
  %53 = load ptr, ptr %11, align 8, !tbaa !3
  %54 = load ptr, ptr %8, align 8, !tbaa !3
  %55 = ptrtoint ptr %53 to i64
  %56 = ptrtoint ptr %54 to i64
  %57 = sub i64 %55, %56
  %58 = trunc i64 %57 to i32
  store i32 1, ptr %13, align 4
  call void @llvm.lifetime.end.p0(i64 8, ptr %11) #7
  ret i32 %58
}