; Function Attrs: mustprogress nofree norecurse nosync nounwind willreturn memory(argmem: read) uwtable
define noundef i32 @_ZNK5boost7archive6detail18utf8_codecvt_facet9do_lengthER11__mbstate_tPKcS6_m(ptr nocapture nonnull readnone align 8 %0, ptr nocapture nonnull readnone align 4 %1, ptr noundef %2, ptr noundef %3, i64 noundef %4) unnamed_addr #7 align 2 {
  %6 = icmp ne i64 %4, 0
  %7 = icmp ult ptr %2, %3
  %8 = and i1 %6, %7
  br i1 %8, label %.lr.ph, label %._crit_edge

.lr.ph:                                           ; preds = %5
  %9 = ptrtoint ptr %3 to i64
  br label %10

10:                                               ; preds = %.lr.ph, %24
  %.019 = phi ptr [ %2, %.lr.ph ], [ %25, %24 ]
  %.01518 = phi i64 [ 0, %.lr.ph ], [ %26, %24 ]
  %11 = load i8, ptr %.019, align 1, !tbaa !6
  %12 = icmp sgt i8 %11, -1
  br i1 %12, label %_ZN5boost7archive6detail18utf8_codecvt_facet15get_octet_countEh.exit, label %13

13:                                               ; preds = %10
  %14 = and i8 %11, -32
  %or.cond.i = icmp eq i8 %14, -64
  br i1 %or.cond.i, label %_ZN5boost7archive6detail18utf8_codecvt_facet15get_octet_countEh.exit, label %15

15:                                               ; preds = %13
  %16 = and i8 %11, -16
  %or.cond5.i = icmp eq i8 %16, -32
  br i1 %or.cond5.i, label %_ZN5boost7archive6detail18utf8_codecvt_facet15get_octet_countEh.exit, label %17

17:                                               ; preds = %15
  %18 = and i8 %11, -8
  %or.cond8.i = icmp eq i8 %18, -16
  br i1 %or.cond8.i, label %_ZN5boost7archive6detail18utf8_codecvt_facet15get_octet_countEh.exit, label %19

19:                                               ; preds = %17
  %20 = and i8 %11, -4
  %or.cond11.i = icmp eq i8 %20, -8
  %21 = select i1 %or.cond11.i, i64 5, i64 6
  br label %_ZN5boost7archive6detail18utf8_codecvt_facet15get_octet_countEh.exit

_ZN5boost7archive6detail18utf8_codecvt_facet15get_octet_countEh.exit: ; preds = %10, %13, %15, %17, %19
  %.0.i = phi i64 [ 1, %10 ], [ 2, %13 ], [ 3, %15 ], [ 4, %17 ], [ %21, %19 ]
  %22 = ptrtoint ptr %.019 to i64
  %23 = sub i64 %9, %22
  %.not = icmp ult i64 %23, %.0.i
  br i1 %.not, label %._crit_edge, label %24

24:                                               ; preds = %_ZN5boost7archive6detail18utf8_codecvt_facet15get_octet_countEh.exit
  %25 = getelementptr inbounds nuw i8, ptr %.019, i64 %.0.i
  %26 = add nuw i64 %.01518, 1
  %27 = icmp ult i64 %26, %4
  %28 = icmp ult ptr %25, %3
  %29 = select i1 %27, i1 %28, i1 false
  br i1 %29, label %10, label %._crit_edge, !llvm.loop !17

._crit_edge:                                      ; preds = %_ZN5boost7archive6detail18utf8_codecvt_facet15get_octet_countEh.exit, %24, %5
  %.0.lcssa = phi ptr [ %2, %5 ], [ %25, %24 ], [ %.019, %_ZN5boost7archive6detail18utf8_codecvt_facet15get_octet_countEh.exit ]
  %30 = ptrtoint ptr %.0.lcssa to i64
  %31 = ptrtoint ptr %2 to i64
  %32 = sub i64 %30, %31
  %33 = trunc i64 %32 to i32
  ret i32 %33
}